target datalayout = "e-m:e-p270:32:32-p271:32:32-p272:64:64-i64:64-i128:128-f80:128-n8:16:32:64-S128"
target triple = "x86_64-pc-linux-gnu"

%struct.AVFilterContext = type { ptr, ptr, ptr, ptr, ptr, i32, ptr, ptr, i32, ptr, ptr, i32, i32, ptr, ptr, ptr, ptr, i32, ptr, i32, i32 }
%struct.HysteresisContext = type { ptr, %struct.FFFrameSync, i32, i32, [4 x i32], [4 x i32], i32, i32, ptr, ptr, i32, ptr }
%struct.FFFrameSync = type { ptr, ptr, i32, %struct.AVRational, i64, ptr, ptr, i32, i32, i8, i8, ptr, i32, i32, i32, i32 }
%struct.AVRational = type { i32, i32 }
%struct.AVFilterLink = type { ptr, ptr, ptr, ptr, i32, i32, i32, i32, %struct.AVRational, i32, i32, i32, %struct.AVChannelLayout, %struct.AVRational, ptr, i32, %struct.AVFilterFormatsConfig, %struct.AVFilterFormatsConfig }
%struct.AVChannelLayout = type { i32, i32, %union.anon.1, ptr }
%union.anon.1 = type { i64 }
%struct.AVFilterFormatsConfig = type { ptr, ptr, ptr, ptr, ptr }
%struct.AVPixFmtDescriptor = type { ptr, i8, i8, i8, i64, [4 x %struct.AVComponentDescriptor], ptr }
%struct.AVComponentDescriptor = type { i32, i32, i32, i32, i32 }

; Function Attrs: nounwind uwtable
define internal i32 @config_input(ptr noundef %0) #0 {
  %2 = alloca i32, align 4
  %3 = alloca ptr, align 8
  %4 = alloca ptr, align 8
  %5 = alloca ptr, align 8
  %6 = alloca ptr, align 8
  %7 = alloca i32, align 4
  %8 = alloca i32, align 4
  %9 = alloca i32, align 4
  store ptr %0, ptr %3, align 8, !tbaa !24
  call void @llvm.lifetime.start.p0(i64 8, ptr %4) #9
  %10 = load ptr, ptr %3, align 8, !tbaa !24
  %11 = getelementptr inbounds nuw %struct.AVFilterLink, ptr %10, i32 0, i32 2
  %12 = load ptr, ptr %11, align 8, !tbaa !26
  store ptr %12, ptr %4, align 8, !tbaa !4
  call void @llvm.lifetime.start.p0(i64 8, ptr %5) #9
  %13 = load ptr, ptr %4, align 8, !tbaa !4
  %14 = getelementptr inbounds nuw %struct.AVFilterContext, ptr %13, i32 0, i32 9
  %15 = load ptr, ptr %14, align 8, !tbaa !9
  store ptr %15, ptr %5, align 8, !tbaa !22
  call void @llvm.lifetime.start.p0(i64 8, ptr %6) #9
  %16 = load ptr, ptr %3, align 8, !tbaa !24
  %17 = getelementptr inbounds nuw %struct.AVFilterLink, ptr %16, i32 0, i32 5
  %18 = load i32, ptr %17, align 4, !tbaa !34
  %19 = call ptr @av_pix_fmt_desc_get(i32 noundef %18)
  store ptr %19, ptr %6, align 8, !tbaa !35
  call void @llvm.lifetime.start.p0(i64 4, ptr %7) #9
  call void @llvm.lifetime.start.p0(i64 4, ptr %8) #9
  %20 = load ptr, ptr %3, align 8, !tbaa !24
  %21 = getelementptr inbounds nuw %struct.AVFilterLink, ptr %20, i32 0, i32 5
  %22 = load i32, ptr %21, align 4, !tbaa !34
  %23 = call i32 @av_pix_fmt_count_planes(i32 noundef %22)
  %24 = load ptr, ptr %5, align 8, !tbaa !22
  %25 = getelementptr inbounds nuw %struct.HysteresisContext, ptr %24, i32 0, i32 6
  store i32 %23, ptr %25, align 8, !tbaa !37
  %26 = load ptr, ptr %6, align 8, !tbaa !35
  %27 = getelementptr inbounds nuw %struct.AVPixFmtDescriptor, ptr %26, i32 0, i32 2
  %28 = load i8, ptr %27, align 1, !tbaa !43
  %29 = zext i8 %28 to i32
  store i32 %29, ptr %8, align 4, !tbaa !45
  %30 = load ptr, ptr %6, align 8, !tbaa !35
  %31 = getelementptr inbounds nuw %struct.AVPixFmtDescriptor, ptr %30, i32 0, i32 3
  %32 = load i8, ptr %31, align 2, !tbaa !46
  %33 = zext i8 %32 to i32
  store i32 %33, ptr %7, align 4, !tbaa !45
  %34 = load i32, ptr %7, align 4, !tbaa !45
  %35 = call i1 @llvm.is.constant.i32(i32 %34)
  br i1 %35, label %44, label %36

36:                                               ; preds = %1
  %37 = load ptr, ptr %3, align 8, !tbaa !24
  %38 = getelementptr inbounds nuw %struct.AVFilterLink, ptr %37, i32 0, i32 7
  %39 = load i32, ptr %38, align 4, !tbaa !47
  %40 = sub nsw i32 0, %39
  %41 = load i32, ptr %7, align 4, !tbaa !45
  %42 = ashr i32 %40, %41
  %43 = sub nsw i32 0, %42
  br label %54

44:                                               ; preds = %1
  %45 = load ptr, ptr %3, align 8, !tbaa !24
  %46 = getelementptr inbounds nuw %struct.AVFilterLink, ptr %45, i32 0, i32 7
  %47 = load i32, ptr %46, align 4, !tbaa !47
  %48 = load i32, ptr %7, align 4, !tbaa !45
  %49 = shl i32 1, %48
  %50 = add nsw i32 %47, %49
  %51 = sub nsw i32 %50, 1
  %52 = load i32, ptr %7, align 4, !tbaa !45
  %53 = ashr i32 %51, %52
  br label %54

54:                                               ; preds = %44, %36
  %55 = phi i32 [ %43, %36 ], [ %53, %44 ]
  %56 = load ptr, ptr %5, align 8, !tbaa !22
  %57 = getelementptr inbounds nuw %struct.HysteresisContext, ptr %56, i32 0, i32 5
  %58 = getelementptr inbounds [4 x i32], ptr %57, i64 0, i64 2
  store i32 %55, ptr %58, align 8, !tbaa !45
  %59 = load ptr, ptr %5, align 8, !tbaa !22
  %60 = getelementptr inbounds nuw %struct.HysteresisContext, ptr %59, i32 0, i32 5
  %61 = getelementptr inbounds [4 x i32], ptr %60, i64 0, i64 1
  store i32 %55, ptr %61, align 4, !tbaa !45
  %62 = load ptr, ptr %3, align 8, !tbaa !24
  %63 = getelementptr inbounds nuw %struct.AVFilterLink, ptr %62, i32 0, i32 7
  %64 = load i32, ptr %63, align 4, !tbaa !47
  %65 = load ptr, ptr %5, align 8, !tbaa !22
  %66 = getelementptr inbounds nuw %struct.HysteresisContext, ptr %65, i32 0, i32 5
  %67 = getelementptr inbounds [4 x i32], ptr %66, i64 0, i64 3
  store i32 %64, ptr %67, align 4, !tbaa !45
  %68 = load ptr, ptr %5, align 8, !tbaa !22
  %69 = getelementptr inbounds nuw %struct.HysteresisContext, ptr %68, i32 0, i32 5
  %70 = getelementptr inbounds [4 x i32], ptr %69, i64 0, i64 0
  store i32 %64, ptr %70, align 8, !tbaa !45
  %71 = load i32, ptr %8, align 4, !tbaa !45
  %72 = call i1 @llvm.is.constant.i32(i32 %71)
  br i1 %72, label %81, label %73

73:                                               ; preds = %54
  %74 = load ptr, ptr %3, align 8, !tbaa !24
  %75 = getelementptr inbounds nuw %struct.AVFilterLink, ptr %74, i32 0, i32 6
  %76 = load i32, ptr %75, align 8, !tbaa !48
  %77 = sub nsw i32 0, %76
  %78 = load i32, ptr %8, align 4, !tbaa !45
  %79 = ashr i32 %77, %78
  %80 = sub nsw i32 0, %79
  br label %91

81:                                               ; preds = %54
  %82 = load ptr, ptr %3, align 8, !tbaa !24
  %83 = getelementptr inbounds nuw %struct.AVFilterLink, ptr %82, i32 0, i32 6
  %84 = load i32, ptr %83, align 8, !tbaa !48
  %85 = load i32, ptr %8, align 4, !tbaa !45
  %86 = shl i32 1, %85
  %87 = add nsw i32 %84, %86
  %88 = sub nsw i32 %87, 1
  %89 = load i32, ptr %8, align 4, !tbaa !45
  %90 = ashr i32 %88, %89
  br label %91

91:                                               ; preds = %81, %73
  %92 = phi i32 [ %80, %73 ], [ %90, %81 ]
  %93 = load ptr, ptr %5, align 8, !tbaa !22
  %94 = getelementptr inbounds nuw %struct.HysteresisContext, ptr %93, i32 0, i32 4
  %95 = getelementptr inbounds [4 x i32], ptr %94, i64 0, i64 2
  store i32 %92, ptr %95, align 8, !tbaa !45
  %96 = load ptr, ptr %5, align 8, !tbaa !22
  %97 = getelementptr inbounds nuw %struct.HysteresisContext, ptr %96, i32 0, i32 4
  %98 = getelementptr inbounds [4 x i32], ptr %97, i64 0, i64 1
  store i32 %92, ptr %98, align 4, !tbaa !45
  %99 = load ptr, ptr %3, align 8, !tbaa !24
  %100 = getelementptr inbounds nuw %struct.AVFilterLink, ptr %99, i32 0, i32 6
  %101 = load i32, ptr %100, align 8, !tbaa !48
  %102 = load ptr, ptr %5, align 8, !tbaa !22
  %103 = getelementptr inbounds nuw %struct.HysteresisContext, ptr %102, i32 0, i32 4
  %104 = getelementptr inbounds [4 x i32], ptr %103, i64 0, i64 3
  store i32 %101, ptr %104, align 4, !tbaa !45
  %105 = load ptr, ptr %5, align 8, !tbaa !22
  %106 = getelementptr inbounds nuw %struct.HysteresisContext, ptr %105, i32 0, i32 4
  %107 = getelementptr inbounds [4 x i32], ptr %106, i64 0, i64 0
  store i32 %101, ptr %107, align 8, !tbaa !45
  %108 = load ptr, ptr %6, align 8, !tbaa !35
  %109 = getelementptr inbounds nuw %struct.AVPixFmtDescriptor, ptr %108, i32 0, i32 5
  %110 = getelementptr inbounds [4 x %struct.AVComponentDescriptor], ptr %109, i64 0, i64 0
  %111 = getelementptr inbounds nuw %struct.AVComponentDescriptor, ptr %110, i32 0, i32 4
  %112 = load i32, ptr %111, align 8, !tbaa !49
  %113 = load ptr, ptr %5, align 8, !tbaa !22
  %114 = getelementptr inbounds nuw %struct.HysteresisContext, ptr %113, i32 0, i32 7
  store i32 %112, ptr %114, align 4, !tbaa !51
  %115 = load ptr, ptr %6, align 8, !tbaa !35
  %116 = getelementptr inbounds nuw %struct.AVPixFmtDescriptor, ptr %115, i32 0, i32 5
  %117 = getelementptr inbounds [4 x %struct.AVComponentDescriptor], ptr %116, i64 0, i64 0
  %118 = getelementptr inbounds nuw %struct.AVComponentDescriptor, ptr %117, i32 0, i32 4
  %119 = load i32, ptr %118, align 8, !tbaa !49
  %120 = icmp eq i32 %119, 8
  br i1 %120, label %121, label %124

121:                                              ; preds = %91
  %122 = load ptr, ptr %5, align 8, !tbaa !22
  %123 = getelementptr inbounds nuw %struct.HysteresisContext, ptr %122, i32 0, i32 11
  store ptr @hysteresis8, ptr %123, align 8, !tbaa !52
  br label %127

124:                                              ; preds = %91
  %125 = load ptr, ptr %5, align 8, !tbaa !22
  %126 = getelementptr inbounds nuw %struct.HysteresisContext, ptr %125, i32 0, i32 11
  store ptr @hysteresis16, ptr %126, align 8, !tbaa !52
  br label %127

127:                                              ; preds = %124, %121
  %128 = load ptr, ptr %3, align 8, !tbaa !24
  %129 = getelementptr inbounds nuw %struct.AVFilterLink, ptr %128, i32 0, i32 6
  %130 = load i32, ptr %129, align 8, !tbaa !48
  %131 = sext i32 %130 to i64
  %132 = load ptr, ptr %3, align 8, !tbaa !24
  %133 = getelementptr inbounds nuw %struct.AVFilterLink, ptr %132, i32 0, i32 7
  %134 = load i32, ptr %133, align 4, !tbaa !47
  %135 = sext i32 %134 to i64
  %136 = mul i64 %135, 1
  %137 = call noalias ptr @av_calloc(i64 noundef %131, i64 noundef %136)
  %138 = load ptr, ptr %5, align 8, !tbaa !22
  %139 = getelementptr inbounds nuw %struct.HysteresisContext, ptr %138, i32 0, i32 8
  store ptr %137, ptr %139, align 8, !tbaa !53
  %140 = load ptr, ptr %5, align 8, !tbaa !22
  %141 = getelementptr inbounds nuw %struct.HysteresisContext, ptr %140, i32 0, i32 8
  %142 = load ptr, ptr %141, align 8, !tbaa !53
  %143 = icmp ne ptr %142, null
  br i1 %143, label %145, label %144

144:                                              ; preds = %127
  store i32 -12, ptr %2, align 4
  store i32 1, ptr %9, align 4
  br label %164

145:                                              ; preds = %127
  %146 = load ptr, ptr %3, align 8, !tbaa !24
  %147 = getelementptr inbounds nuw %struct.AVFilterLink, ptr %146, i32 0, i32 6
  %148 = load i32, ptr %147, align 8, !tbaa !48
  %149 = sext i32 %148 to i64
  %150 = load ptr, ptr %3, align 8, !tbaa !24
  %151 = getelementptr inbounds nuw %struct.AVFilterLink, ptr %150, i32 0, i32 7
  %152 = load i32, ptr %151, align 4, !tbaa !47
  %153 = sext i32 %152 to i64
  %154 = mul i64 %153, 4
  %155 = call noalias ptr @av_calloc(i64 noundef %149, i64 noundef %154)
  %156 = load ptr, ptr %5, align 8, !tbaa !22
  %157 = getelementptr inbounds nuw %struct.HysteresisContext, ptr %156, i32 0, i32 9
  store ptr %155, ptr %157, align 8, !tbaa !54
  %158 = load ptr, ptr %5, align 8, !tbaa !22
  %159 = getelementptr inbounds nuw %struct.HysteresisContext, ptr %158, i32 0, i32 9
  %160 = load ptr, ptr %159, align 8, !tbaa !54
  %161 = icmp ne ptr %160, null
  br i1 %161, label %163, label %162

162:                                              ; preds = %145
  store i32 -12, ptr %2, align 4
  store i32 1, ptr %9, align 4
  br label %164

163:                                              ; preds = %145
  store i32 0, ptr %2, align 4
  store i32 1, ptr %9, align 4
  br label %164

164:                                              ; preds = %163, %162, %144
  call void @llvm.lifetime.end.p0(i64 4, ptr %8) #9
  call void @llvm.lifetime.end.p0(i64 4, ptr %7) #9
  call void @llvm.lifetime.end.p0(i64 8, ptr %6) #9
  call void @llvm.lifetime.end.p0(i64 8, ptr %5) #9
  call void @llvm.lifetime.end.p0(i64 8, ptr %4) #9
  %165 = load i32, ptr %2, align 4
  ret i32 %165
}