; Function Attrs: nounwind uwtable
define internal range(i32 -12, 1) i32 @config_input(ptr noundef readonly captures(none) %0) #0 {
  %2 = getelementptr inbounds nuw i8, ptr %0, i64 16
  %3 = load ptr, ptr %2, align 8, !tbaa !20
  %4 = getelementptr inbounds nuw i8, ptr %3, i64 72
  %5 = load ptr, ptr %4, align 8, !tbaa !4
  %6 = getelementptr inbounds nuw i8, ptr %0, i64 36
  %7 = load i32, ptr %6, align 4, !tbaa !29
  %8 = tail call ptr @av_pix_fmt_desc_get(i32 noundef %7) #9
  %9 = load i32, ptr %6, align 4, !tbaa !29
  %10 = tail call i32 @av_pix_fmt_count_planes(i32 noundef %9) #9
  %11 = getelementptr inbounds nuw i8, ptr %5, i64 144
  store i32 %10, ptr %11, align 8, !tbaa !30
  %12 = getelementptr inbounds nuw i8, ptr %8, i64 9
  %13 = load i8, ptr %12, align 1, !tbaa !36
  %14 = zext nneg i8 %13 to i32
  %15 = getelementptr inbounds nuw i8, ptr %0, i64 44
  %16 = load i32, ptr %15, align 4, !tbaa !38
  %17 = sub nsw i32 0, %16
  %18 = getelementptr inbounds nuw i8, ptr %8, i64 10
  %19 = load i8, ptr %18, align 2, !tbaa !39
  %20 = zext nneg i8 %19 to i32
  %21 = ashr i32 %17, %20
  %22 = sub nsw i32 0, %21
  %23 = getelementptr inbounds nuw i8, ptr %5, i64 128
  %24 = getelementptr inbounds nuw i8, ptr %5, i64 136
  store i32 %22, ptr %24, align 8, !tbaa !40
  %25 = getelementptr inbounds nuw i8, ptr %5, i64 132
  store i32 %22, ptr %25, align 4, !tbaa !40
  %26 = getelementptr inbounds nuw i8, ptr %0, i64 44
  %27 = load i32, ptr %26, align 4, !tbaa !38
  %28 = getelementptr inbounds nuw i8, ptr %5, i64 140
  store i32 %27, ptr %28, align 4, !tbaa !40
  store i32 %27, ptr %23, align 8, !tbaa !40
  %29 = getelementptr inbounds nuw i8, ptr %0, i64 40
  %30 = load i32, ptr %29, align 8, !tbaa !41
  %31 = sub nsw i32 0, %30
  %32 = ashr i32 %31, %14
  %33 = sub nsw i32 0, %32
  %34 = getelementptr inbounds nuw i8, ptr %5, i64 112
  %35 = getelementptr inbounds nuw i8, ptr %5, i64 120
  store i32 %33, ptr %35, align 8, !tbaa !40
  %36 = getelementptr inbounds nuw i8, ptr %5, i64 116
  store i32 %33, ptr %36, align 4, !tbaa !40
  %37 = getelementptr inbounds nuw i8, ptr %0, i64 40
  %38 = load i32, ptr %37, align 8, !tbaa !41
  %39 = getelementptr inbounds nuw i8, ptr %5, i64 124
  store i32 %38, ptr %39, align 4, !tbaa !40
  store i32 %38, ptr %34, align 8, !tbaa !40
  %40 = getelementptr inbounds nuw i8, ptr %8, i64 40
  %41 = load i32, ptr %40, align 8, !tbaa !42
  %42 = getelementptr inbounds nuw i8, ptr %5, i64 148
  store i32 %41, ptr %42, align 4, !tbaa !44
  %43 = icmp eq i32 %41, 8
  %spec.select = select i1 %43, ptr @hysteresis8, ptr @hysteresis16
  %44 = getelementptr inbounds nuw i8, ptr %5, i64 176
  store ptr %spec.select, ptr %44, align 8, !tbaa !45
  %45 = load i32, ptr %37, align 8, !tbaa !41
  %46 = sext i32 %45 to i64
  %47 = load i32, ptr %26, align 4, !tbaa !38
  %48 = sext i32 %47 to i64
  %49 = tail call noalias ptr @av_calloc(i64 noundef %46, i64 noundef %48) #9
  %50 = getelementptr inbounds nuw i8, ptr %5, i64 152
  store ptr %49, ptr %50, align 8, !tbaa !46
  %.not = icmp eq ptr %49, null
  br i1 %.not, label %59, label %51

51:                                               ; preds = %1
  %52 = load i32, ptr %37, align 8, !tbaa !41
  %53 = sext i32 %52 to i64
  %54 = load i32, ptr %26, align 4, !tbaa !38
  %55 = sext i32 %54 to i64
  %56 = shl nsw i64 %55, 2
  %57 = tail call noalias ptr @av_calloc(i64 noundef %53, i64 noundef %56) #9
  %58 = getelementptr inbounds nuw i8, ptr %5, i64 160
  store ptr %57, ptr %58, align 8, !tbaa !47
  %.not42 = icmp eq ptr %57, null
  %. = select i1 %.not42, i32 -12, i32 0
  br label %59

59:                                               ; preds = %51, %1
  %.0 = phi i32 [ -12, %1 ], [ %., %51 ]
  ret i32 %.0
}